(dp0
Vengine
p1
Vxelatex
p2
sVpackages
p3
c__builtin__
set
p4
((lp5
Vdialogue
p6
aVfancyhdr
p7
aVlips
p8
aVfootmisc
p9
aVepigraph
p10
aVattrib
p11
atp12
Rp13
sVfiles_with_guttermarks
p14
g4
((lp15
V/Users/chrissymeijns/Documents/General documents/Artikelen RM/RM Mijn Verhaal/rm-verhaal/./humapap.cls
p16
aS'humapap.cls'
p17
atp18
Rp19
sVsynctex
p20
I01
s.